target datalayout = "e-m:e-p270:32:32-p271:32:32-p272:64:64-i64:64-i128:128-f80:128-n8:16:32:64-S128"
target triple = "x86_64-pc-linux-gnu"

@.str.1 = private unnamed_addr constant [18 x i8] c"rangetypes_gist.c\00", align 1
@.str.2 = private unnamed_addr constant [32 x i8] c"unrecognized range strategy: %d\00", align 1
@__func__.range_gist_consistent_leaf_range = private unnamed_addr constant [33 x i8] c"range_gist_consistent_leaf_range\00", align 1

; Function Attrs: nounwind uwtable
define internal zeroext i1 @range_gist_consistent_leaf_range(ptr noundef %0, i16 noundef zeroext %1, ptr noundef %2, ptr noundef %3) #0 {
  %5 = alloca i1, align 1
  %6 = alloca ptr, align 8
  %7 = alloca i16, align 2
  %8 = alloca ptr, align 8
  %9 = alloca ptr, align 8
  store ptr %0, ptr %6, align 8
  store i16 %1, ptr %7, align 2
  store ptr %2, ptr %8, align 8
  store ptr %3, ptr %9, align 8
  %10 = load i16, ptr %7, align 2
  %11 = zext i16 %10 to i32
  switch i32 %11, label %57 [
    i32 1, label %12
    i32 2, label %17
    i32 3, label %22
    i32 4, label %27
    i32 5, label %32
    i32 6, label %37
    i32 7, label %42
    i32 8, label %47
    i32 18, label %52
  ]

12:                                               ; preds = %4
  %13 = load ptr, ptr %6, align 8
  %14 = load ptr, ptr %8, align 8
  %15 = load ptr, ptr %9, align 8
  %16 = call zeroext i1 @range_before_internal(ptr noundef %13, ptr noundef %14, ptr noundef %15)
  store i1 %16, ptr %5, align 1
  br label %69

17:                                               ; preds = %4
  %18 = load ptr, ptr %6, align 8
  %19 = load ptr, ptr %8, align 8
  %20 = load ptr, ptr %9, align 8
  %21 = call zeroext i1 @range_overleft_internal(ptr noundef %18, ptr noundef %19, ptr noundef %20)
  store i1 %21, ptr %5, align 1
  br label %69

22:                                               ; preds = %4
  %23 = load ptr, ptr %6, align 8
  %24 = load ptr, ptr %8, align 8
  %25 = load ptr, ptr %9, align 8
  %26 = call zeroext i1 @range_overlaps_internal(ptr noundef %23, ptr noundef %24, ptr noundef %25)
  store i1 %26, ptr %5, align 1
  br label %69

27:                                               ; preds = %4
  %28 = load ptr, ptr %6, align 8
  %29 = load ptr, ptr %8, align 8
  %30 = load ptr, ptr %9, align 8
  %31 = call zeroext i1 @range_overright_internal(ptr noundef %28, ptr noundef %29, ptr noundef %30)
  store i1 %31, ptr %5, align 1
  br label %69

32:                                               ; preds = %4
  %33 = load ptr, ptr %6, align 8
  %34 = load ptr, ptr %8, align 8
  %35 = load ptr, ptr %9, align 8
  %36 = call zeroext i1 @range_after_internal(ptr noundef %33, ptr noundef %34, ptr noundef %35)
  store i1 %36, ptr %5, align 1
  br label %69

37:                                               ; preds = %4
  %38 = load ptr, ptr %6, align 8
  %39 = load ptr, ptr %8, align 8
  %40 = load ptr, ptr %9, align 8
  %41 = call zeroext i1 @range_adjacent_internal(ptr noundef %38, ptr noundef %39, ptr noundef %40)
  store i1 %41, ptr %5, align 1
  br label %69

42:                                               ; preds = %4
  %43 = load ptr, ptr %6, align 8
  %44 = load ptr, ptr %8, align 8
  %45 = load ptr, ptr %9, align 8
  %46 = call zeroext i1 @range_contains_internal(ptr noundef %43, ptr noundef %44, ptr noundef %45)
  store i1 %46, ptr %5, align 1
  br label %69

47:                                               ; preds = %4
  %48 = load ptr, ptr %6, align 8
  %49 = load ptr, ptr %8, align 8
  %50 = load ptr, ptr %9, align 8
  %51 = call zeroext i1 @range_contained_by_internal(ptr noundef %48, ptr noundef %49, ptr noundef %50)
  store i1 %51, ptr %5, align 1
  br label %69

52:                                               ; preds = %4
  %53 = load ptr, ptr %6, align 8
  %54 = load ptr, ptr %8, align 8
  %55 = load ptr, ptr %9, align 8
  %56 = call zeroext i1 @range_eq_internal(ptr noundef %53, ptr noundef %54, ptr noundef %55)
  store i1 %56, ptr %5, align 1
  br label %69

57:                                               ; preds = %4
  br label %58

58:                                               ; preds = %57
  br i1 true, label %59, label %61

59:                                               ; preds = %58
  %60 = call zeroext i1 @errstart_cold(i32 noundef 21, ptr noundef null) #9
  br i1 %60, label %63, label %67

61:                                               ; preds = %58
  %62 = call zeroext i1 @errstart(i32 noundef 21, ptr noundef null)
  br i1 %62, label %63, label %67

63:                                               ; preds = %61, %59
  %64 = load i16, ptr %7, align 2
  %65 = zext i16 %64 to i32
  %66 = call i32 (ptr, ...) @errmsg_internal(ptr noundef @.str.2, i32 noundef %65)
  call void @errfinish(ptr noundef @.str.1, i32 noundef 1084, ptr noundef @__func__.range_gist_consistent_leaf_range)
  br label %67

67:                                               ; preds = %63, %61, %59
  unreachable

68:                                               ; No predecessors!
  store i1 false, ptr %5, align 1
  br label %69

69:                                               ; preds = %68, %52, %47, %42, %37, %32, %27, %22, %17, %12
  %70 = load i1, ptr %5, align 1
  ret i1 %70
}