; Function Attrs: nounwind uwtable
define internal fastcc zeroext i1 @range_gist_consistent_leaf_range(ptr noundef %0, i16 noundef zeroext %1, ptr noundef %2, ptr noundef %3) unnamed_addr #0 {
  switch i16 %1, label %23 [
    i16 1, label %5
    i16 2, label %7
    i16 3, label %9
    i16 4, label %11
    i16 5, label %13
    i16 6, label %15
    i16 7, label %17
    i16 8, label %19
    i16 18, label %21
  ]

5:                                                ; preds = %4
  %6 = tail call zeroext i1 @range_before_internal(ptr noundef %0, ptr noundef %2, ptr noundef %3) #10
  br label %27

7:                                                ; preds = %4
  %8 = tail call zeroext i1 @range_overleft_internal(ptr noundef %0, ptr noundef %2, ptr noundef %3) #10
  br label %27

9:                                                ; preds = %4
  %10 = tail call zeroext i1 @range_overlaps_internal(ptr noundef %0, ptr noundef %2, ptr noundef %3) #10
  br label %27

11:                                               ; preds = %4
  %12 = tail call zeroext i1 @range_overright_internal(ptr noundef %0, ptr noundef %2, ptr noundef %3) #10
  br label %27

13:                                               ; preds = %4
  %14 = tail call zeroext i1 @range_after_internal(ptr noundef %0, ptr noundef %2, ptr noundef %3) #10
  br label %27

15:                                               ; preds = %4
  %16 = tail call zeroext i1 @range_adjacent_internal(ptr noundef %0, ptr noundef %2, ptr noundef %3) #10
  br label %27

17:                                               ; preds = %4
  %18 = tail call zeroext i1 @range_contains_internal(ptr noundef %0, ptr noundef %2, ptr noundef %3) #10
  br label %27

19:                                               ; preds = %4
  %20 = tail call zeroext i1 @range_contained_by_internal(ptr noundef %0, ptr noundef %2, ptr noundef %3) #10
  br label %27

21:                                               ; preds = %4
  %22 = tail call zeroext i1 @range_eq_internal(ptr noundef %0, ptr noundef %2, ptr noundef %3) #10
  br label %27

23:                                               ; preds = %4
  %24 = zext i16 %1 to i32
  %25 = tail call zeroext i1 @errstart_cold(i32 noundef 21, ptr noundef null) #11
  tail call void @llvm.assume(i1 %25)
  %26 = tail call i32 (ptr, ...) @errmsg_internal(ptr noundef nonnull @.str.2, i32 noundef %24) #10
  tail call void @errfinish(ptr noundef nonnull @.str.1, i32 noundef 1084, ptr noundef nonnull @__func__.range_gist_consistent_leaf_range) #10
  unreachable

27:                                               ; preds = %21, %19, %17, %15, %13, %11, %9, %7, %5
  %.0 = phi i1 [ %22, %21 ], [ %20, %19 ], [ %18, %17 ], [ %16, %15 ], [ %14, %13 ], [ %12, %11 ], [ %10, %9 ], [ %8, %7 ], [ %6, %5 ]
  ret i1 %.0
}